target datalayout = "e-m:e-p270:32:32-p271:32:32-p272:64:64-i64:64-i128:128-f80:128-n8:16:32:64-S128"
target triple = "x86_64-pc-linux-gnu"

%struct.ident_t = type { i32, i32, i32, i32, ptr }
%"class.ncnn::Mat" = type { ptr, ptr, i64, i32, ptr, i32, i32, i32, i32, i32, i64 }
%"class.ncnn::Option" = type { i8, i32, ptr, ptr, i32, i8, i8, i8, i8, i8, i8, i8, i8, i8, i8, i8, i8, i8, i8, i8, i8, i8, i8, i8, i8, i32, i8, i8, i8, i8, i8, i8, i8, i8, i8, i8, i8, i8 }

@2 = private unnamed_addr constant %struct.ident_t { i32 0, i32 2, i32 0, i32 22, ptr @0 }, align 8

; Function Attrs: alwaysinline mustprogress nounwind uwtable
define linkonce_odr hidden noundef i64 @_ZNK4ncnn3Mat5totalEv(ptr noundef nonnull align 8 dereferenceable(72) %0) #3 comdat align 2 {
  %2 = alloca ptr, align 8
  store ptr %0, ptr %2, align 8, !tbaa !53
  %3 = load ptr, ptr %2, align 8
  %4 = getelementptr inbounds nuw %"class.ncnn::Mat", ptr %3, i32 0, i32 10
  %5 = load i64, ptr %4, align 8, !tbaa !79
  %6 = getelementptr inbounds nuw %"class.ncnn::Mat", ptr %3, i32 0, i32 9
  %7 = load i32, ptr %6, align 8, !tbaa !78
  %8 = sext i32 %7 to i64
  %9 = mul i64 %5, %8
  ret i64 %9
}

; Function Attrs: alwaysinline mustprogress uwtable
define linkonce_odr hidden noundef zeroext i1 @_ZNK4ncnn3Mat5emptyEv(ptr noundef nonnull align 8 dereferenceable(72) %0) #5 comdat align 2 {
  %2 = alloca ptr, align 8
  store ptr %0, ptr %2, align 8, !tbaa !53
  %3 = load ptr, ptr %2, align 8
  %4 = getelementptr inbounds nuw %"class.ncnn::Mat", ptr %3, i32 0, i32 0
  %5 = load ptr, ptr %4, align 8, !tbaa !72
  %6 = icmp eq ptr %5, null
  br i1 %6, label %10, label %7

7:                                                ; preds = %1
  %8 = call noundef i64 @_ZNK4ncnn3Mat5totalEv(ptr noundef nonnull align 8 dereferenceable(72) %3)
  %9 = icmp eq i64 %8, 0
  br label %10

10:                                               ; preds = %7, %1
  %11 = phi i1 [ true, %1 ], [ %9, %7 ]
  ret i1 %11
}

; Function Attrs: mustprogress uwtable
define internal noundef i32 @_ZN4ncnnL24deconvolutiondepthwise1dERKNS_3MatERS0_S2_S2_iiiiiS2_RKNS_6OptionE(ptr noundef nonnull align 8 dereferenceable(72) %0, ptr noundef nonnull align 8 dereferenceable(72) %1, ptr noundef nonnull align 8 dereferenceable(72) %2, ptr noundef nonnull align 8 dereferenceable(72) %3, i32 noundef %4, i32 noundef %5, i32 noundef %6, i32 noundef %7, i32 noundef %8, ptr noundef nonnull align 8 dereferenceable(72) %9, ptr noundef nonnull align 8 dereferenceable(64) %10) #1 {
  %12 = alloca ptr, align 8
  %13 = alloca ptr, align 8
  %14 = alloca ptr, align 8
  %15 = alloca ptr, align 8
  %16 = alloca i32, align 4
  %17 = alloca i32, align 4
  %18 = alloca i32, align 4
  %19 = alloca i32, align 4
  %20 = alloca i32, align 4
  %21 = alloca ptr, align 8
  %22 = alloca ptr, align 8
  %23 = alloca i32, align 4
  %24 = alloca i32, align 4
  %25 = alloca i32, align 4
  %26 = alloca i32, align 4
  %27 = alloca i32, align 4
  %28 = alloca i32, align 4
  %29 = alloca i32, align 4
  %30 = call i32 @__kmpc_global_thread_num(ptr @2)
  store ptr %0, ptr %12, align 8, !tbaa !53
  store ptr %1, ptr %13, align 8, !tbaa !53
  store ptr %2, ptr %14, align 8, !tbaa !53
  store ptr %3, ptr %15, align 8, !tbaa !53
  store i32 %4, ptr %16, align 4, !tbaa !55
  store i32 %5, ptr %17, align 4, !tbaa !55
  store i32 %6, ptr %18, align 4, !tbaa !55
  store i32 %7, ptr %19, align 4, !tbaa !55
  store i32 %8, ptr %20, align 4, !tbaa !55
  store ptr %9, ptr %21, align 8, !tbaa !53
  store ptr %10, ptr %22, align 8, !tbaa !51
  call void @llvm.lifetime.start.p0(i64 4, ptr %23) #9
  %31 = load ptr, ptr %12, align 8, !tbaa !53
  %32 = getelementptr inbounds nuw %"class.ncnn::Mat", ptr %31, i32 0, i32 6
  %33 = load i32, ptr %32, align 4, !tbaa !56
  store i32 %33, ptr %23, align 4, !tbaa !55
  call void @llvm.lifetime.start.p0(i64 4, ptr %24) #9
  %34 = load ptr, ptr %12, align 8, !tbaa !53
  %35 = getelementptr inbounds nuw %"class.ncnn::Mat", ptr %34, i32 0, i32 7
  %36 = load i32, ptr %35, align 8, !tbaa !54
  store i32 %36, ptr %24, align 4, !tbaa !55
  call void @llvm.lifetime.start.p0(i64 4, ptr %25) #9
  %37 = load ptr, ptr %13, align 8, !tbaa !53
  %38 = getelementptr inbounds nuw %"class.ncnn::Mat", ptr %37, i32 0, i32 6
  %39 = load i32, ptr %38, align 4, !tbaa !56
  store i32 %39, ptr %25, align 4, !tbaa !55
  call void @llvm.lifetime.start.p0(i64 4, ptr %26) #9
  %40 = load ptr, ptr %13, align 8, !tbaa !53
  %41 = getelementptr inbounds nuw %"class.ncnn::Mat", ptr %40, i32 0, i32 7
  %42 = load i32, ptr %41, align 8, !tbaa !54
  store i32 %42, ptr %26, align 4, !tbaa !55
  call void @llvm.lifetime.start.p0(i64 4, ptr %27) #9
  %43 = load ptr, ptr %15, align 8, !tbaa !53
  %44 = call noundef zeroext i1 @_ZNK4ncnn3Mat5emptyEv(ptr noundef nonnull align 8 dereferenceable(72) %43)
  %45 = select i1 %44, i32 0, i32 1
  store i32 %45, ptr %27, align 4, !tbaa !55
  %46 = load i32, ptr %24, align 4, !tbaa !55
  %47 = load i32, ptr %19, align 4, !tbaa !55
  %48 = icmp eq i32 %46, %47
  br i1 %48, label %49, label %62

49:                                               ; preds = %11
  %50 = load i32, ptr %19, align 4, !tbaa !55
  %51 = load i32, ptr %26, align 4, !tbaa !55
  %52 = icmp eq i32 %50, %51
  br i1 %52, label %53, label %62

53:                                               ; preds = %49
  %54 = load ptr, ptr %22, align 8, !tbaa !51
  %55 = getelementptr inbounds nuw %"class.ncnn::Option", ptr %54, i32 0, i32 1
  %56 = load i32, ptr %55, align 4, !tbaa !81
  call void @__kmpc_push_num_threads(ptr @2, i32 %30, i32 %56)
  %57 = load ptr, ptr %13, align 8, !tbaa !53
  %58 = load ptr, ptr %12, align 8, !tbaa !53
  %59 = load ptr, ptr %14, align 8, !tbaa !53
  %60 = load ptr, ptr %15, align 8, !tbaa !53
  %61 = load ptr, ptr %21, align 8, !tbaa !53
  call void (ptr, i32, ptr, ...) @__kmpc_fork_call(ptr @2, i32 13, ptr @_ZN4ncnnL24deconvolutiondepthwise1dERKNS_3MatERS0_S2_S2_iiiiiS2_RKNS_6OptionE.omp_outlined, ptr %19, ptr %57, ptr %58, ptr %59, ptr %16, ptr %27, ptr %60, ptr %23, ptr %17, ptr %18, ptr %25, ptr %20, ptr %61)
  br label %77

62:                                               ; preds = %49, %11
  call void @llvm.lifetime.start.p0(i64 4, ptr %28) #9
  %63 = load i32, ptr %24, align 4, !tbaa !55
  %64 = load i32, ptr %19, align 4, !tbaa !55
  %65 = sdiv i32 %63, %64
  store i32 %65, ptr %28, align 4, !tbaa !55
  call void @llvm.lifetime.start.p0(i64 4, ptr %29) #9
  %66 = load i32, ptr %26, align 4, !tbaa !55
  %67 = load i32, ptr %19, align 4, !tbaa !55
  %68 = sdiv i32 %66, %67
  store i32 %68, ptr %29, align 4, !tbaa !55
  %69 = load ptr, ptr %22, align 8, !tbaa !51
  %70 = getelementptr inbounds nuw %"class.ncnn::Option", ptr %69, i32 0, i32 1
  %71 = load i32, ptr %70, align 4, !tbaa !81
  call void @__kmpc_push_num_threads(ptr @2, i32 %30, i32 %71)
  %72 = load ptr, ptr %13, align 8, !tbaa !53
  %73 = load ptr, ptr %14, align 8, !tbaa !53
  %74 = load ptr, ptr %15, align 8, !tbaa !53
  %75 = load ptr, ptr %12, align 8, !tbaa !53
  %76 = load ptr, ptr %21, align 8, !tbaa !53
  call void (ptr, i32, ptr, ...) @__kmpc_fork_call(ptr @2, i32 15, ptr @_ZN4ncnnL24deconvolutiondepthwise1dERKNS_3MatERS0_S2_S2_iiiiiS2_RKNS_6OptionE.omp_outlined.1, ptr %19, ptr %29, ptr %72, ptr %73, ptr %16, ptr %28, ptr %27, ptr %74, ptr %23, ptr %17, ptr %75, ptr %18, ptr %25, ptr %20, ptr %76)
  call void @llvm.lifetime.end.p0(i64 4, ptr %29) #9
  call void @llvm.lifetime.end.p0(i64 4, ptr %28) #9
  br label %77

77:                                               ; preds = %62, %53
  call void @llvm.lifetime.end.p0(i64 4, ptr %27) #9
  call void @llvm.lifetime.end.p0(i64 4, ptr %26) #9
  call void @llvm.lifetime.end.p0(i64 4, ptr %25) #9
  call void @llvm.lifetime.end.p0(i64 4, ptr %24) #9
  call void @llvm.lifetime.end.p0(i64 4, ptr %23) #9
  ret i32 0
}