; Function Attrs: mustprogress nounwind uwtable
define internal fastcc void @_ZN4ncnnL24deconvolutiondepthwise1dERKNS_3MatERS0_S2_S2_iiiiiS2_RKNS_6OptionE(ptr noundef nonnull align 8 dereferenceable(72) %0, ptr noundef nonnull align 8 dereferenceable(72) %1, ptr noundef nonnull align 8 dereferenceable(72) %2, ptr noundef nonnull align 8 dereferenceable(72) %3, i32 noundef %4, i32 noundef %5, i32 noundef %6, i32 noundef %7, i32 noundef %8, ptr noundef nonnull align 8 dereferenceable(72) %9, ptr noundef nonnull readonly align 8 captures(none) dereferenceable(64) %10) unnamed_addr #8 {
  %12 = alloca i32, align 4
  %13 = alloca i32, align 4
  %14 = alloca i32, align 4
  %15 = alloca i32, align 4
  %16 = alloca i32, align 4
  %17 = alloca i32, align 4
  %18 = alloca i32, align 4
  %19 = alloca i32, align 4
  %20 = alloca i32, align 4
  %21 = alloca i32, align 4
  %22 = tail call i32 @__kmpc_global_thread_num(ptr nonnull @2)
  store i32 %4, ptr %12, align 4, !tbaa !66
  store i32 %5, ptr %13, align 4, !tbaa !66
  store i32 %6, ptr %14, align 4, !tbaa !66
  store i32 %7, ptr %15, align 4, !tbaa !66
  store i32 %8, ptr %16, align 4, !tbaa !66
  call void @llvm.lifetime.start.p0(i64 4, ptr nonnull %17) #10
  %23 = getelementptr inbounds nuw i8, ptr %0, i64 44
  %24 = load i32, ptr %23, align 4, !tbaa !48
  store i32 %24, ptr %17, align 4, !tbaa !66
  %25 = getelementptr inbounds nuw i8, ptr %0, i64 48
  %26 = load i32, ptr %25, align 8, !tbaa !49
  call void @llvm.lifetime.start.p0(i64 4, ptr nonnull %18) #10
  %27 = getelementptr inbounds nuw i8, ptr %1, i64 44
  %28 = load i32, ptr %27, align 4, !tbaa !48
  store i32 %28, ptr %18, align 4, !tbaa !66
  %29 = getelementptr inbounds nuw i8, ptr %1, i64 48
  %30 = load i32, ptr %29, align 8, !tbaa !49
  call void @llvm.lifetime.start.p0(i64 4, ptr nonnull %19) #10
  %31 = load ptr, ptr %3, align 8, !tbaa !16
  %32 = icmp eq ptr %31, null
  br i1 %32, label %_ZNK4ncnn3Mat5emptyEv.exit, label %33

33:                                               ; preds = %11
  %34 = getelementptr inbounds nuw i8, ptr %3, i64 64
  %35 = load i64, ptr %34, align 8, !tbaa !17
  %36 = getelementptr inbounds nuw i8, ptr %3, i64 56
  %37 = load i32, ptr %36, align 8, !tbaa !51
  %38 = sext i32 %37 to i64
  %39 = mul i64 %35, %38
  %40 = icmp ne i64 %39, 0
  %41 = zext i1 %40 to i32
  br label %_ZNK4ncnn3Mat5emptyEv.exit

_ZNK4ncnn3Mat5emptyEv.exit:                       ; preds = %11, %33
  %not. = phi i32 [ 0, %11 ], [ %41, %33 ]
  store i32 %not., ptr %19, align 4, !tbaa !66
  %42 = icmp eq i32 %26, %7
  %43 = icmp eq i32 %7, %30
  %or.cond = select i1 %42, i1 %43, i1 false
  br i1 %or.cond, label %44, label %47

44:                                               ; preds = %_ZNK4ncnn3Mat5emptyEv.exit
  %45 = getelementptr inbounds nuw i8, ptr %10, i64 4
  %46 = load i32, ptr %45, align 4, !tbaa !67
  tail call void @__kmpc_push_num_threads(ptr nonnull @2, i32 %22, i32 %46)
  call void (ptr, i32, ptr, ...) @__kmpc_fork_call(ptr nonnull @2, i32 13, ptr nonnull @_ZN4ncnnL24deconvolutiondepthwise1dERKNS_3MatERS0_S2_S2_iiiiiS2_RKNS_6OptionE.omp_outlined, ptr nonnull %15, ptr nonnull %1, ptr nonnull %0, ptr nonnull %2, ptr nonnull %12, ptr nonnull %19, ptr nonnull %3, ptr nonnull %17, ptr nonnull %13, ptr nonnull %14, ptr nonnull %18, ptr nonnull %16, ptr nonnull %9)
  br label %52

47:                                               ; preds = %_ZNK4ncnn3Mat5emptyEv.exit
  call void @llvm.lifetime.start.p0(i64 4, ptr nonnull %20) #10
  %48 = sdiv i32 %26, %7
  store i32 %48, ptr %20, align 4, !tbaa !66
  call void @llvm.lifetime.start.p0(i64 4, ptr nonnull %21) #10
  %49 = sdiv i32 %30, %7
  store i32 %49, ptr %21, align 4, !tbaa !66
  %50 = getelementptr inbounds nuw i8, ptr %10, i64 4
  %51 = load i32, ptr %50, align 4, !tbaa !67
  tail call void @__kmpc_push_num_threads(ptr nonnull @2, i32 %22, i32 %51)
  call void (ptr, i32, ptr, ...) @__kmpc_fork_call(ptr nonnull @2, i32 15, ptr nonnull @_ZN4ncnnL24deconvolutiondepthwise1dERKNS_3MatERS0_S2_S2_iiiiiS2_RKNS_6OptionE.omp_outlined.1, ptr nonnull %15, ptr nonnull %21, ptr nonnull %1, ptr nonnull %2, ptr nonnull %12, ptr nonnull %20, ptr nonnull %19, ptr nonnull %3, ptr nonnull %17, ptr nonnull %13, ptr nonnull %0, ptr nonnull %14, ptr nonnull %18, ptr nonnull %16, ptr nonnull %9)
  call void @llvm.lifetime.end.p0(i64 4, ptr nonnull %21) #10
  call void @llvm.lifetime.end.p0(i64 4, ptr nonnull %20) #10
  br label %52

52:                                               ; preds = %47, %44
  call void @llvm.lifetime.end.p0(i64 4, ptr nonnull %19) #10
  call void @llvm.lifetime.end.p0(i64 4, ptr nonnull %18) #10
  call void @llvm.lifetime.end.p0(i64 4, ptr nonnull %17) #10
  ret void
}